; ModuleID = '58/1145.c'
source_filename = "58/1145.c"
target datalayout = "e-m:e-p270:32:32-p271:32:32-p272:64:64-i64:64-f80:128-n8:16:32:64-S128"
target triple = "x86_64-pc-linux-gnu"

@.str = private unnamed_addr constant [3 x i8] c"%d\00", align 1
@.str.1 = private unnamed_addr constant [4 x i8] c"%d\0A\00", align 1

; Function Attrs: noinline nounwind uwtable
define dso_local i32 @main() #0 {
  %1 = alloca i32, align 4
  %2 = alloca [81 x i8]*, align 8
  %3 = alloca i32, align 4
  %4 = alloca i32, align 4
  %5 = alloca i32, align 4
  %6 = alloca i32, align 4
  store i32 0, i32* %1, align 4
  %7 = call i32 (i8*, ...) @__isoc99_scanf(i8* getelementptr inbounds ([3 x i8], [3 x i8]* @.str, i64 0, i64 0), i32* %3)
  %8 = load i32, i32* %3, align 4
  %9 = sext i32 %8 to i64
  %10 = call noalias i8* @calloc(i64 %9, i64 81) #4
  %11 = bitcast i8* %10 to [81 x i8]*
  store [81 x i8]* %11, [81 x i8]** %2, align 8
  %12 = call i32 @getchar()
  %13 = load [81 x i8]*, [81 x i8]** %2, align 8
  %14 = getelementptr inbounds [81 x i8], [81 x i8]* %13, i64 0, i64 0
  %15 = call i32 (i8*, ...) bitcast (i32 (...)* @gets to i32 (i8*, ...)*)(i8* %14)
  store i32 1, i32* %4, align 4
  br label %16

16:                                               ; preds = %27, %0
  %17 = load i32, i32* %4, align 4
  %18 = load i32, i32* %3, align 4
  %19 = icmp slt i32 %17, %18
  br i1 %19, label %20, label %30

20:                                               ; preds = %16
  %21 = load [81 x i8]*, [81 x i8]** %2, align 8
  %22 = load i32, i32* %4, align 4
  %23 = sext i32 %22 to i64
  %24 = getelementptr inbounds [81 x i8], [81 x i8]* %21, i64 %23
  %25 = getelementptr inbounds [81 x i8], [81 x i8]* %24, i64 0, i64 0
  %26 = call i32 (i8*, ...) bitcast (i32 (...)* @gets to i32 (i8*, ...)*)(i8* %25)
  br label %27

27:                                               ; preds = %20
  %28 = load i32, i32* %4, align 4
  %29 = add nsw i32 %28, 1
  store i32 %29, i32* %4, align 4
  br label %16

30:                                               ; preds = %16
  store i32 0, i32* %4, align 4
  br label %31

31:                                               ; preds = %188, %30
  %32 = load i32, i32* %4, align 4
  %33 = load i32, i32* %3, align 4
  %34 = icmp slt i32 %32, %33
  br i1 %34, label %35, label %191

35:                                               ; preds = %31
  store i32 1, i32* %6, align 4
  %36 = load [81 x i8]*, [81 x i8]** %2, align 8
  %37 = load i32, i32* %4, align 4
  %38 = sext i32 %37 to i64
  %39 = getelementptr inbounds [81 x i8], [81 x i8]* %36, i64 %38
  %40 = getelementptr inbounds [81 x i8], [81 x i8]* %39, i64 0, i64 0
  %41 = load i8, i8* %40, align 1
  %42 = sext i8 %41 to i32
  %43 = icmp ne i32 %42, 95
  br i1 %43, label %44, label %81

44:                                               ; preds = %35
  %45 = load [81 x i8]*, [81 x i8]** %2, align 8
  %46 = load i32, i32* %4, align 4
  %47 = sext i32 %46 to i64
  %48 = getelementptr inbounds [81 x i8], [81 x i8]* %45, i64 %47
  %49 = getelementptr inbounds [81 x i8], [81 x i8]* %48, i64 0, i64 0
  %50 = load i8, i8* %49, align 1
  %51 = sext i8 %50 to i32
  %52 = icmp sgt i32 %51, 90
  br i1 %52, label %62, label %53

53:                                               ; preds = %44
  %54 = load [81 x i8]*, [81 x i8]** %2, align 8
  %55 = load i32, i32* %4, align 4
  %56 = sext i32 %55 to i64
  %57 = getelementptr inbounds [81 x i8], [81 x i8]* %54, i64 %56
  %58 = getelementptr inbounds [81 x i8], [81 x i8]* %57, i64 0, i64 0
  %59 = load i8, i8* %58, align 1
  %60 = sext i8 %59 to i32
  %61 = icmp slt i32 %60, 65
  br i1 %61, label %62, label %81

62:                                               ; preds = %53, %44
  %63 = load [81 x i8]*, [81 x i8]** %2, align 8
  %64 = load i32, i32* %4, align 4
  %65 = sext i32 %64 to i64
  %66 = getelementptr inbounds [81 x i8], [81 x i8]* %63, i64 %65
  %67 = getelementptr inbounds [81 x i8], [81 x i8]* %66, i64 0, i64 0
  %68 = load i8, i8* %67, align 1
  %69 = sext i8 %68 to i32
  %70 = icmp sgt i32 %69, 122
  br i1 %70, label %80, label %71

71:                                               ; preds = %62
  %72 = load [81 x i8]*, [81 x i8]** %2, align 8
  %73 = load i32, i32* %4, align 4
  %74 = sext i32 %73 to i64
  %75 = getelementptr inbounds [81 x i8], [81 x i8]* %72, i64 %74
  %76 = getelementptr inbounds [81 x i8], [81 x i8]* %75, i64 0, i64 0
  %77 = load i8, i8* %76, align 1
  %78 = sext i8 %77 to i32
  %79 = icmp slt i32 %78, 97
  br i1 %79, label %80, label %81

80:                                               ; preds = %71, %62
  store i32 0, i32* %6, align 4
  br label %81

81:                                               ; preds = %80, %71, %53, %35
  %82 = load i32, i32* %6, align 4
  %83 = icmp eq i32 %82, 1
  br i1 %83, label %84, label %185

84:                                               ; preds = %81
  store i32 0, i32* %5, align 4
  br label %85

85:                                               ; preds = %181, %84
  %86 = load i32, i32* %5, align 4
  %87 = sext i32 %86 to i64
  %88 = load [81 x i8]*, [81 x i8]** %2, align 8
  %89 = load i32, i32* %4, align 4
  %90 = sext i32 %89 to i64
  %91 = getelementptr inbounds [81 x i8], [81 x i8]* %88, i64 %90
  %92 = getelementptr inbounds [81 x i8], [81 x i8]* %91, i64 0, i64 0
  %93 = call i64 @strlen(i8* %92) #5
  %94 = icmp ult i64 %87, %93
  br i1 %94, label %95, label %184

95:                                               ; preds = %85
  %96 = load [81 x i8]*, [81 x i8]** %2, align 8
  %97 = load i32, i32* %4, align 4
  %98 = sext i32 %97 to i64
  %99 = getelementptr inbounds [81 x i8], [81 x i8]* %96, i64 %98
  %100 = getelementptr inbounds [81 x i8], [81 x i8]* %99, i64 0, i64 0
  %101 = load i32, i32* %5, align 4
  %102 = sext i32 %101 to i64
  %103 = getelementptr inbounds i8, i8* %100, i64 %102
  %104 = load i8, i8* %103, align 1
  %105 = sext i8 %104 to i32
  %106 = icmp ne i32 %105, 95
  br i1 %106, label %107, label %180

107:                                              ; preds = %95
  %108 = load [81 x i8]*, [81 x i8]** %2, align 8
  %109 = load i32, i32* %4, align 4
  %110 = sext i32 %109 to i64
  %111 = getelementptr inbounds [81 x i8], [81 x i8]* %108, i64 %110
  %112 = getelementptr inbounds [81 x i8], [81 x i8]* %111, i64 0, i64 0
  %113 = load i32, i32* %5, align 4
  %114 = sext i32 %113 to i64
  %115 = getelementptr inbounds i8, i8* %112, i64 %114
  %116 = load i8, i8* %115, align 1
  %117 = sext i8 %116 to i32
  %118 = icmp sgt i32 %117, 90
  br i1 %118, label %131, label %119

119:                                              ; preds = %107
  %120 = load [81 x i8]*, [81 x i8]** %2, align 8
  %121 = load i32, i32* %4, align 4
  %122 = sext i32 %121 to i64
  %123 = getelementptr inbounds [81 x i8], [81 x i8]* %120, i64 %122
  %124 = getelementptr inbounds [81 x i8], [81 x i8]* %123, i64 0, i64 0
  %125 = load i32, i32* %5, align 4
  %126 = sext i32 %125 to i64
  %127 = getelementptr inbounds i8, i8* %124, i64 %126
  %128 = load i8, i8* %127, align 1
  %129 = sext i8 %128 to i32
  %130 = icmp slt i32 %129, 65
  br i1 %130, label %131, label %180

131:                                              ; preds = %119, %107
  %132 = load [81 x i8]*, [81 x i8]** %2, align 8
  %133 = load i32, i32* %4, align 4
  %134 = sext i32 %133 to i64
  %135 = getelementptr inbounds [81 x i8], [81 x i8]* %132, i64 %134
  %136 = getelementptr inbounds [81 x i8], [81 x i8]* %135, i64 0, i64 0
  %137 = load i32, i32* %5, align 4
  %138 = sext i32 %137 to i64
  %139 = getelementptr inbounds i8, i8* %136, i64 %138
  %140 = load i8, i8* %139, align 1
  %141 = sext i8 %140 to i32
  %142 = icmp sgt i32 %141, 122
  br i1 %142, label %155, label %143

143:                                              ; preds = %131
  %144 = load [81 x i8]*, [81 x i8]** %2, align 8
  %145 = load i32, i32* %4, align 4
  %146 = sext i32 %145 to i64
  %147 = getelementptr inbounds [81 x i8], [81 x i8]* %144, i64 %146
  %148 = getelementptr inbounds [81 x i8], [81 x i8]* %147, i64 0, i64 0
  %149 = load i32, i32* %5, align 4
  %150 = sext i32 %149 to i64
  %151 = getelementptr inbounds i8, i8* %148, i64 %150
  %152 = load i8, i8* %151, align 1
  %153 = sext i8 %152 to i32
  %154 = icmp slt i32 %153, 97
  br i1 %154, label %155, label %180

155:                                              ; preds = %143, %131
  %156 = load [81 x i8]*, [81 x i8]** %2, align 8
  %157 = load i32, i32* %4, align 4
  %158 = sext i32 %157 to i64
  %159 = getelementptr inbounds [81 x i8], [81 x i8]* %156, i64 %158
  %160 = getelementptr inbounds [81 x i8], [81 x i8]* %159, i64 0, i64 0
  %161 = load i32, i32* %5, align 4
  %162 = sext i32 %161 to i64
  %163 = getelementptr inbounds i8, i8* %160, i64 %162
  %164 = load i8, i8* %163, align 1
  %165 = sext i8 %164 to i32
  %166 = icmp sgt i32 %165, 57
  br i1 %166, label %179, label %167

167:                                              ; preds = %155
  %168 = load [81 x i8]*, [81 x i8]** %2, align 8
  %169 = load i32, i32* %4, align 4
  %170 = sext i32 %169 to i64
  %171 = getelementptr inbounds [81 x i8], [81 x i8]* %168, i64 %170
  %172 = getelementptr inbounds [81 x i8], [81 x i8]* %171, i64 0, i64 0
  %173 = load i32, i32* %5, align 4
  %174 = sext i32 %173 to i64
  %175 = getelementptr inbounds i8, i8* %172, i64 %174
  %176 = load i8, i8* %175, align 1
  %177 = sext i8 %176 to i32
  %178 = icmp slt i32 %177, 48
  br i1 %178, label %179, label %180

179:                                              ; preds = %167, %155
  store i32 0, i32* %6, align 4
  br label %184

180:                                              ; preds = %167, %143, %119, %95
  br label %181

181:                                              ; preds = %180
  %182 = load i32, i32* %5, align 4
  %183 = add nsw i32 %182, 1
  store i32 %183, i32* %5, align 4
  br label %85

184:                                              ; preds = %179, %85
  br label %185

185:                                              ; preds = %184, %81
  %186 = load i32, i32* %6, align 4
  %187 = call i32 (i8*, ...) @printf(i8* getelementptr inbounds ([4 x i8], [4 x i8]* @.str.1, i64 0, i64 0), i32 %186)
  br label %188

188:                                              ; preds = %185
  %189 = load i32, i32* %4, align 4
  %190 = add nsw i32 %189, 1
  store i32 %190, i32* %4, align 4
  br label %31

191:                                              ; preds = %31
  %192 = load i32, i32* %1, align 4
  ret i32 %192
}

declare dso_local i32 @__isoc99_scanf(i8*, ...) #1

; Function Attrs: nounwind
declare dso_local noalias i8* @calloc(i64, i64) #2

declare dso_local i32 @getchar() #1

declare dso_local i32 @gets(...) #1

; Function Attrs: nounwind readonly
declare dso_local i64 @strlen(i8*) #3

declare dso_local i32 @printf(i8*, ...) #1


!llvm.module.flags = !{!0}
!llvm.ident = !{!1}

!0 = !{i32 1, !"wchar_size", i32 4}
!1 = !{!"clang version 10.0.0-4ubuntu1 "}
