; ModuleID = 'source-C-CXX/57/1145.c'
source_filename = "source-C-CXX/57/1145.c"
target datalayout = "e-m:e-p270:32:32-p271:32:32-p272:64:64-i64:64-f80:128-n8:16:32:64-S128"
target triple = "x86_64-pc-linux-gnu"

%struct._IO_FILE = type { i32, i8*, i8*, i8*, i8*, i8*, i8*, i8*, i8*, i8*, i8*, i8*, %struct._IO_marker*, %struct._IO_FILE*, i32, i32, i64, i16, i8, [1 x i8], i8*, i64, %struct._IO_codecvt*, %struct._IO_wide_data*, %struct._IO_FILE*, i8*, i64, i32, [20 x i8] }
%struct._IO_marker = type opaque
%struct._IO_codecvt = type opaque
%struct._IO_wide_data = type opaque

@.str = private unnamed_addr constant [3 x i8] c"%d\00", align 1
@.str.1 = private unnamed_addr constant [4 x i8] c"%d\0A\00", align 1
@stdin = external local_unnamed_addr global %struct._IO_FILE*, align 8

; Function Attrs: nounwind sspstrong uwtable
define dso_local i32 @main() local_unnamed_addr #0 {
  %1 = alloca i32, align 4
  %2 = bitcast i32* %1 to i8*
  call void @llvm.lifetime.start.p0i8(i64 4, i8* nonnull %2) #6
  %3 = call i32 (i8*, ...) @__isoc99_scanf(i8* getelementptr inbounds ([3 x i8], [3 x i8]* @.str, i64 0, i64 0), i32* nonnull %1)
  %4 = load i32, i32* %1, align 4, !tbaa !5
  %5 = sext i32 %4 to i64
  %6 = call noalias align 16 i8* @calloc(i64 %5, i64 81) #6
  %7 = bitcast i8* %6 to [81 x i8]*
  %8 = load %struct._IO_FILE*, %struct._IO_FILE** @stdin, align 8, !tbaa !9
  %9 = call i32 @getc(%struct._IO_FILE* %8) #6
  %10 = call i32 (i8*, ...) bitcast (i32 (...)* @gets to i32 (i8*, ...)*)(i8* %6) #6
  %11 = load i32, i32* %1, align 4, !tbaa !5
  %12 = icmp sgt i32 %11, 1
  br i1 %12, label %16, label %13

13:                                               ; preds = %16, %0
  %14 = phi i32 [ %11, %0 ], [ %21, %16 ]
  %15 = icmp sgt i32 %14, 0
  br i1 %15, label %24, label %73

16:                                               ; preds = %0, %16
  %17 = phi i64 [ %20, %16 ], [ 1, %0 ]
  %18 = getelementptr inbounds [81 x i8], [81 x i8]* %7, i64 %17, i64 0
  %19 = call i32 (i8*, ...) bitcast (i32 (...)* @gets to i32 (i8*, ...)*)(i8* nonnull %18) #6
  %20 = add nuw nsw i64 %17, 1
  %21 = load i32, i32* %1, align 4, !tbaa !5
  %22 = sext i32 %21 to i64
  %23 = icmp slt i64 %20, %22
  br i1 %23, label %16, label %13, !llvm.loop !11

24:                                               ; preds = %13, %66
  %25 = phi i64 [ %69, %66 ], [ 0, %13 ]
  %26 = getelementptr inbounds [81 x i8], [81 x i8]* %7, i64 %25, i64 0
  %27 = load i8, i8* %26, align 1, !tbaa !13
  %28 = icmp ne i8 %27, 95
  %29 = add i8 %27, -65
  %30 = icmp ugt i8 %29, 25
  %31 = and i1 %28, %30
  %32 = add i8 %27, -97
  %33 = icmp ugt i8 %32, 25
  %34 = and i1 %33, %31
  br i1 %34, label %66, label %35

35:                                               ; preds = %24
  %36 = call i64 @strlen(i8* noundef nonnull %26) #7
  %37 = icmp eq i64 %36, 0
  br i1 %37, label %66, label %38

38:                                               ; preds = %35
  %39 = icmp ne i8 %27, 95
  %40 = add i8 %27, -65
  %41 = icmp ugt i8 %40, 25
  %42 = and i1 %39, %41
  %43 = add i8 %27, -97
  %44 = icmp ugt i8 %43, 25
  %45 = and i1 %44, %42
  %46 = add i8 %27, -48
  %47 = icmp ugt i8 %46, 9
  %48 = select i1 %45, i1 %47, i1 false
  br i1 %48, label %66, label %49

49:                                               ; preds = %38, %52
  %50 = phi i64 [ %65, %52 ], [ 1, %38 ]
  %51 = icmp eq i64 %50, %36
  br i1 %51, label %66, label %52, !llvm.loop !14

52:                                               ; preds = %49
  %53 = getelementptr inbounds [81 x i8], [81 x i8]* %7, i64 %25, i64 %50
  %54 = load i8, i8* %53, align 1, !tbaa !13
  %55 = icmp ne i8 %54, 95
  %56 = add i8 %54, -65
  %57 = icmp ugt i8 %56, 25
  %58 = and i1 %55, %57
  %59 = add i8 %54, -97
  %60 = icmp ugt i8 %59, 25
  %61 = and i1 %60, %58
  %62 = add i8 %54, -48
  %63 = icmp ugt i8 %62, 9
  %64 = select i1 %61, i1 %63, i1 false
  %65 = add nuw i64 %50, 1
  br i1 %64, label %66, label %49

66:                                               ; preds = %52, %49, %38, %35, %24
  %67 = phi i32 [ 0, %24 ], [ 1, %35 ], [ 0, %38 ], [ 1, %49 ], [ 0, %52 ]
  %68 = call i32 (i8*, ...) @printf(i8* nonnull dereferenceable(1) getelementptr inbounds ([4 x i8], [4 x i8]* @.str.1, i64 0, i64 0), i32 %67)
  %69 = add nuw nsw i64 %25, 1
  %70 = load i32, i32* %1, align 4, !tbaa !5
  %71 = sext i32 %70 to i64
  %72 = icmp slt i64 %69, %71
  br i1 %72, label %24, label %73, !llvm.loop !15

73:                                               ; preds = %66, %13
  call void @llvm.lifetime.end.p0i8(i64 4, i8* nonnull %2) #6
  ret i32 0
}

; Function Attrs: argmemonly mustprogress nofree nosync nounwind willreturn
declare void @llvm.lifetime.start.p0i8(i64 immarg, i8* nocapture) #1

; Function Attrs: nofree nounwind
declare noundef i32 @__isoc99_scanf(i8* nocapture noundef readonly, ...) local_unnamed_addr #2

; Function Attrs: mustprogress nofree nounwind willreturn
declare noalias noundef align 16 i8* @calloc(i64 noundef, i64 noundef) local_unnamed_addr #3

declare i32 @gets(...) local_unnamed_addr #4

; Function Attrs: argmemonly mustprogress nofree nounwind readonly willreturn
declare i64 @strlen(i8* nocapture) local_unnamed_addr #5

; Function Attrs: nofree nounwind
declare noundef i32 @printf(i8* nocapture noundef readonly, ...) local_unnamed_addr #2

; Function Attrs: argmemonly mustprogress nofree nosync nounwind willreturn
declare void @llvm.lifetime.end.p0i8(i64 immarg, i8* nocapture) #1

; Function Attrs: nofree nounwind
declare noundef i32 @getc(%struct._IO_FILE* nocapture noundef) local_unnamed_addr #2


!llvm.module.flags = !{!0, !1, !2, !3}
!llvm.ident = !{!4}

!0 = !{i32 1, !"wchar_size", i32 4}
!1 = !{i32 7, !"PIC Level", i32 2}
!2 = !{i32 7, !"PIE Level", i32 2}
!3 = !{i32 7, !"uwtable", i32 1}
!4 = !{!"clang version 13.0.0"}
!5 = !{!6, !6, i64 0}
!6 = !{!"int", !7, i64 0}
!7 = !{!"omnipotent char", !8, i64 0}
!8 = !{!"Simple C/C++ TBAA"}
!9 = !{!10, !10, i64 0}
!10 = !{!"any pointer", !7, i64 0}
!11 = distinct !{!11, !12}
!12 = !{!"llvm.loop.mustprogress"}
!13 = !{!7, !7, i64 0}
!14 = distinct !{!14, !12}
!15 = distinct !{!15, !12}
